; ModuleID = 'bench/openssl/original/aborttest.ll'
source_filename = "bench/openssl/original/aborttest.ll"
target datalayout = "e-m:e-p270:32:32-p271:32:32-p272:64:64-i64:64-i128:128-f80:128-n8:16:32:64-S128"
target triple = "x86_64-pc-linux-gnu"

@.str = private unnamed_addr constant [16 x i8] c"Voluntary abort\00", align 1
@.str.1 = private unnamed_addr constant [28 x i8] c"../openssl/test/aborttest.c\00", align 1

; Function Attrs: noreturn nounwind uwtable
define dso_local noundef i32 @main(i32 noundef %0, ptr noundef readnone captures(none) %1) local_unnamed_addr #0 {
  tail call void @OPENSSL_die(ptr noundef nonnull @.str, ptr noundef nonnull @.str.1, i32 noundef 14) #2
  unreachable
}

; Function Attrs: noreturn
declare void @OPENSSL_die(ptr noundef, ptr noundef, i32 noundef) local_unnamed_addr #1


!llvm.module.flags = !{!0, !1, !2, !3}

!0 = !{i32 1, !"wchar_size", i32 4}
!1 = !{i32 8, !"PIC Level", i32 2}
!2 = !{i32 7, !"PIE Level", i32 2}
!3 = !{i32 7, !"uwtable", i32 2}
